; ModuleID = '36/757.c'
source_filename = "36/757.c"
target datalayout = "e-m:e-p270:32:32-p271:32:32-p272:64:64-i64:64-f80:128-n8:16:32:64-S128"
target triple = "x86_64-pc-linux-gnu"

@.str = private unnamed_addr constant [3 x i8] c"%s\00", align 1
@.str.1 = private unnamed_addr constant [4 x i8] c"NO\0A\00", align 1
@.str.2 = private unnamed_addr constant [5 x i8] c"YES\0A\00", align 1

; Function Attrs: noinline nounwind uwtable
define dso_local void @main() #0 {
  %1 = alloca [100 x i8], align 16
  %2 = alloca [100 x i8], align 16
  %3 = alloca i32, align 4
  %4 = alloca i32, align 4
  %5 = alloca [128 x i32], align 16
  %6 = alloca [128 x i32], align 16
  %7 = alloca i32, align 4
  %8 = alloca i32, align 4
  %9 = bitcast [128 x i32]* %5 to i8*
  call void @llvm.memset.p0i8.i64(i8* align 16 %9, i8 0, i64 512, i1 false)
  %10 = bitcast [128 x i32]* %6 to i8*
  call void @llvm.memset.p0i8.i64(i8* align 16 %10, i8 0, i64 512, i1 false)
  %11 = call i32 (i8*, ...) @__isoc99_scanf(i8* getelementptr inbounds ([3 x i8], [3 x i8]* @.str, i64 0, i64 0), [100 x i8]* %1)
  %12 = call i32 (i8*, ...) @__isoc99_scanf(i8* getelementptr inbounds ([3 x i8], [3 x i8]* @.str, i64 0, i64 0), [100 x i8]* %2)
  %13 = getelementptr inbounds [100 x i8], [100 x i8]* %1, i64 0, i64 0
  %14 = call i64 @strlen(i8* %13) #4
  %15 = trunc i64 %14 to i32
  store i32 %15, i32* %3, align 4
  %16 = getelementptr inbounds [100 x i8], [100 x i8]* %2, i64 0, i64 0
  %17 = call i64 @strlen(i8* %16) #4
  %18 = trunc i64 %17 to i32
  store i32 %18, i32* %4, align 4
  %19 = load i32, i32* %3, align 4
  %20 = load i32, i32* %4, align 4
  %21 = icmp ne i32 %19, %20
  br i1 %21, label %22, label %24

22:                                               ; preds = %0
  %23 = call i32 (i8*, ...) @printf(i8* getelementptr inbounds ([4 x i8], [4 x i8]* @.str.1, i64 0, i64 0))
  br label %84

24:                                               ; preds = %0
  store i32 0, i32* %7, align 4
  br label %25

25:                                               ; preds = %40, %24
  %26 = load i32, i32* %7, align 4
  %27 = load i32, i32* %3, align 4
  %28 = icmp slt i32 %26, %27
  br i1 %28, label %29, label %43

29:                                               ; preds = %25
  %30 = load i32, i32* %7, align 4
  %31 = sext i32 %30 to i64
  %32 = getelementptr inbounds [100 x i8], [100 x i8]* %1, i64 0, i64 %31
  %33 = load i8, i8* %32, align 1
  %34 = sext i8 %33 to i32
  store i32 %34, i32* %8, align 4
  %35 = load i32, i32* %8, align 4
  %36 = sext i32 %35 to i64
  %37 = getelementptr inbounds [128 x i32], [128 x i32]* %5, i64 0, i64 %36
  %38 = load i32, i32* %37, align 4
  %39 = add nsw i32 %38, 1
  store i32 %39, i32* %37, align 4
  br label %40

40:                                               ; preds = %29
  %41 = load i32, i32* %7, align 4
  %42 = add nsw i32 %41, 1
  store i32 %42, i32* %7, align 4
  br label %25

43:                                               ; preds = %25
  store i32 0, i32* %7, align 4
  br label %44

44:                                               ; preds = %59, %43
  %45 = load i32, i32* %7, align 4
  %46 = load i32, i32* %4, align 4
  %47 = icmp slt i32 %45, %46
  br i1 %47, label %48, label %62

48:                                               ; preds = %44
  %49 = load i32, i32* %7, align 4
  %50 = sext i32 %49 to i64
  %51 = getelementptr inbounds [100 x i8], [100 x i8]* %2, i64 0, i64 %50
  %52 = load i8, i8* %51, align 1
  %53 = sext i8 %52 to i32
  store i32 %53, i32* %8, align 4
  %54 = load i32, i32* %8, align 4
  %55 = sext i32 %54 to i64
  %56 = getelementptr inbounds [128 x i32], [128 x i32]* %6, i64 0, i64 %55
  %57 = load i32, i32* %56, align 4
  %58 = add nsw i32 %57, 1
  store i32 %58, i32* %56, align 4
  br label %59

59:                                               ; preds = %48
  %60 = load i32, i32* %7, align 4
  %61 = add nsw i32 %60, 1
  store i32 %61, i32* %7, align 4
  br label %44

62:                                               ; preds = %44
  store i32 0, i32* %7, align 4
  br label %63

63:                                               ; preds = %79, %62
  %64 = load i32, i32* %7, align 4
  %65 = icmp slt i32 %64, 128
  br i1 %65, label %66, label %82

66:                                               ; preds = %63
  %67 = load i32, i32* %7, align 4
  %68 = sext i32 %67 to i64
  %69 = getelementptr inbounds [128 x i32], [128 x i32]* %5, i64 0, i64 %68
  %70 = load i32, i32* %69, align 4
  %71 = load i32, i32* %7, align 4
  %72 = sext i32 %71 to i64
  %73 = getelementptr inbounds [128 x i32], [128 x i32]* %6, i64 0, i64 %72
  %74 = load i32, i32* %73, align 4
  %75 = icmp ne i32 %70, %74
  br i1 %75, label %76, label %78

76:                                               ; preds = %66
  %77 = call i32 (i8*, ...) @printf(i8* getelementptr inbounds ([4 x i8], [4 x i8]* @.str.1, i64 0, i64 0))
  br label %84

78:                                               ; preds = %66
  br label %79

79:                                               ; preds = %78
  %80 = load i32, i32* %7, align 4
  %81 = add nsw i32 %80, 1
  store i32 %81, i32* %7, align 4
  br label %63

82:                                               ; preds = %63
  %83 = call i32 (i8*, ...) @printf(i8* getelementptr inbounds ([5 x i8], [5 x i8]* @.str.2, i64 0, i64 0))
  br label %84

84:                                               ; preds = %82, %76, %22
  ret void
}

; Function Attrs: argmemonly nounwind willreturn
declare void @llvm.memset.p0i8.i64(i8* nocapture writeonly, i8, i64, i1 immarg) #1

declare dso_local i32 @__isoc99_scanf(i8*, ...) #2

; Function Attrs: nounwind readonly
declare dso_local i64 @strlen(i8*) #3

declare dso_local i32 @printf(i8*, ...) #2


!llvm.module.flags = !{!0}
!llvm.ident = !{!1}

!0 = !{i32 1, !"wchar_size", i32 4}
!1 = !{!"clang version 10.0.0-4ubuntu1 "}
